; Function Attrs: mustprogress nounwind uwtable
define void @_ZN6casadi10DllLibraryD2Ev(ptr noundef nonnull align 8 dereferenceable(176) initializes((0, 8), (24, 32)) %0) unnamed_addr #4 align 2 personality ptr @__gxx_personality_v0 {
  store ptr getelementptr inbounds nuw inrange(-16, 104) (i8, ptr @_ZTVN6casadi10DllLibraryE, i64 16), ptr %0, align 8, !tbaa !3
  %2 = getelementptr inbounds nuw i8, ptr %0, i64 24
  store ptr getelementptr inbounds nuw inrange(-16, 8) (i8, ptr @_ZTVN6casadi10DllLibraryE, i64 136), ptr %2, align 8, !tbaa !3
  %3 = getelementptr inbounds nuw i8, ptr %0, i64 168
  %4 = load ptr, ptr %3, align 8, !tbaa !168
  %.not = icmp eq ptr %4, null
  br i1 %.not, label %7, label %5

5:                                                ; preds = %1
  %6 = invoke noundef i32 @_ZN6casadi20close_shared_libraryEPv(ptr noundef nonnull %4)
          to label %7 unwind label %8

7:                                                ; preds = %5, %1
  tail call void @_ZN6casadi16ImporterInternalD2Ev(ptr noundef nonnull align 8 dereferenceable(161) %0) #26
  ret void

8:                                                ; preds = %5
  %9 = landingpad { ptr, i32 }
          catch ptr null
  %10 = extractvalue { ptr, i32 } %9, 0
  tail call void @__clang_call_terminate(ptr %10) #27
  unreachable
}